; Function Attrs: nounwind uwtable
define ptr @EVP_MAC_gettable_params(ptr noundef readonly captures(none) %0) local_unnamed_addr #0 {
  %2 = getelementptr inbounds nuw i8, ptr %0, i64 88
  %3 = load ptr, ptr %2, align 8, !tbaa !29
  %4 = icmp eq ptr %3, null
  br i1 %4, label %9, label %5

5:                                                ; preds = %1
  %6 = load ptr, ptr %0, align 8, !tbaa !17
  %7 = tail call ptr @ossl_provider_ctx(ptr noundef %6) #4
  %8 = tail call ptr %3(ptr noundef %7) #4
  br label %9

9:                                                ; preds = %1, %5
  %.0 = phi ptr [ %8, %5 ], [ null, %1 ]
  ret ptr %.0
}